(dp0
S'bilhete'
p1
(lp2
(ibilhete
Bilhete
p3
(dp4
S'numeros'
p5
(lp6
I0
aI1
aI2
aI3
aI4
aI5
aI6
aI7
aI8
aI9
asba(ibilhete
Bilhete
p7
(dp8
S'numeros'
p9
(lp10
I0
aI1
aI2
aI3
aI4
aI5
aI6
aI7
aI8
aI9
aI10
aI11
aI12
aI13
aI14
aI15
aI16
aI17
aI18
aI19
asba(ibilhete
Bilhete
p11
(dp12
g9
(lp13
I0
aI1
aI2
aI3
aI4
aI5
aI6
aI7
aI8
aI9
aI10
aI11
aI12
aI13
aI14
aI15
aI16
aI17
aI18
aI19
aI20
aI21
aI22
aI23
aI24
aI25
aI26
aI27
aI28
aI29
asba(ibilhete
Bilhete
p14
(dp15
g9
(lp16
I0
aI1
aI2
aI3
aI4
aI5
aI6
aI7
aI8
aI9
aI10
aI11
aI12
aI13
aI14
aI15
aI16
aI17
aI18
aI19
aI20
aI21
aI22
aI23
aI24
aI25
aI26
aI27
aI28
aI29
aI30
aI31
aI32
aI33
aI34
aI35
aI36
aI37
aI38
aI39
asba(ibilhete
Bilhete
p17
(dp18
g9
(lp19
I0
aI1
aI2
aI3
aI4
aI5
aI6
aI7
aI8
aI9
aI10
aI11
aI12
aI13
aI14
aI15
aI16
aI17
aI18
aI19
aI20
aI21
aI22
aI23
aI24
aI25
aI26
aI27
aI28
aI29
aI30
aI31
aI32
aI33
aI34
aI35
aI36
aI37
aI38
aI39
aI40
aI41
aI42
aI43
aI44
aI45
aI46
aI47
aI48
aI49
asba(ibilhete
Bilhete
p20
(dp21
S'numeros'
p22
(lp23
I0
aI1
aI2
aI3
aI4
aI5
aI6
aI7
aI8
aI9
aI11
aI12
aI13
aI14
aI15
aI16
aI17
aI18
aI21
aI22
aI23
aI24
aI25
aI26
aI27
aI28
aI31
aI32
aI33
aI34
aI35
aI36
aI37
aI38
aI41
aI42
aI43
aI44
aI45
aI46
aI47
aI48
aI51
aI52
aI53
aI54
aI55
aI56
aI57
aI58
asba(ibilhete
Bilhete
p24
(dp25
g22
(lp26
I1
aI2
aI3
aI4
aI5
aI6
aI7
aI8
aI11
aI12
aI13
aI14
aI15
aI16
aI17
aI18
aI21
aI22
aI23
aI24
aI25
aI26
aI27
aI28
aI31
aI32
aI33
aI34
aI35
aI36
aI37
aI38
aI42
aI43
aI44
aI45
aI46
aI47
aI52
aI53
aI54
aI55
aI56
aI57
aI62
aI63
aI64
aI65
aI66
aI67
asba(ibilhete
Bilhete
p27
(dp28
g22
(lp29
I1
aI2
aI3
aI4
aI5
aI6
aI7
aI8
aI12
aI13
aI14
aI15
aI16
aI17
aI22
aI23
aI24
aI25
aI26
aI27
aI32
aI33
aI34
aI35
aI36
aI37
aI42
aI43
aI44
aI45
aI46
aI47
aI52
aI53
aI54
aI55
aI56
aI57
aI62
aI63
aI64
aI65
aI66
aI67
aI72
aI73
aI74
aI75
aI76
aI77
asba(ibilhete
Bilhete
p30
(dp31
S'numeros'
p32
(lp33
I2
aI3
aI4
aI5
aI6
aI7
aI12
aI13
aI14
aI15
aI16
aI17
aI22
aI23
aI24
aI25
aI26
aI27
aI32
aI33
aI34
aI35
aI36
aI37
aI42
aI43
aI44
aI45
aI46
aI47
aI52
aI53
aI54
aI55
aI56
aI57
aI62
aI63
aI64
aI65
aI66
aI67
aI73
aI74
aI75
aI76
aI83
aI84
aI85
aI86
asba(ibilhete
Bilhete
p34
(dp35
S'numeros'
p36
(lp37
I2
aI3
aI10
aI11
aI12
aI14
aI15
aI16
aI19
aI22
aI23
aI24
aI26
aI27
aI28
aI30
aI31
aI33
aI35
aI36
aI37
aI40
aI43
aI45
aI46
aI47
aI48
aI49
aI53
aI55
aI57
aI58
aI59
aI60
aI63
aI64
aI75
aI78
aI79
aI81
aI84
aI85
aI86
aI89
aI90
aI95
aI96
aI97
aI98
aI99
asbas.