(dp0
S'bilhete'
p1
(lp2
(ibilhete
Bilhete
p3
(dp4
S'numeros'
p5
(lp6
I3
aI4
aI5
aI6
aI10
aI12
aI13
aI14
aI16
aI18
aI20
aI24
aI25
aI27
aI29
aI30
aI33
aI34
aI35
aI36
aI38
aI40
aI44
aI49
aI53
aI54
aI56
aI57
aI58
aI59
aI63
aI64
aI66
aI67
aI68
aI70
aI72
aI73
aI77
aI79
aI80
aI82
aI83
aI85
aI88
aI90
aI93
aI95
aI98
aI99
asba(ibilhete
Bilhete
p7
(dp8
S'numeros'
p9
(lp10
I0
aI4
aI7
aI8
aI9
aI11
aI12
aI13
aI14
aI15
aI16
aI17
aI18
aI22
aI23
aI24
aI25
aI26
aI27
aI29
aI33
aI34
aI39
aI41
aI45
aI46
aI49
aI52
aI54
aI60
aI61
aI62
aI63
aI66
aI70
aI73
aI78
aI79
aI81
aI83
aI85
aI86
aI90
aI92
aI94
aI95
aI96
aI97
aI98
aI99
asba(ibilhete
Bilhete
p11
(dp12
g9
(lp13
I1
aI2
aI4
aI6
aI7
aI10
aI13
aI14
aI15
aI16
aI17
aI22
aI25
aI28
aI29
aI30
aI32
aI33
aI34
aI35
aI36
aI40
aI42
aI44
aI47
aI48
aI49
aI50
aI51
aI53
aI54
aI57
aI58
aI59
aI60
aI61
aI62
aI63
aI66
aI69
aI72
aI74
aI75
aI77
aI79
aI81
aI92
aI96
aI97
aI99
asba(ibilhete
Bilhete
p14
(dp15
g9
(lp16
I1
aI3
aI6
aI7
aI8
aI9
aI11
aI13
aI16
aI17
aI18
aI22
aI23
aI26
aI27
aI31
aI32
aI34
aI39
aI44
aI46
aI48
aI49
aI51
aI54
aI55
aI56
aI59
aI60
aI61
aI62
aI63
aI67
aI68
aI70
aI71
aI74
aI79
aI80
aI81
aI82
aI85
aI86
aI87
aI88
aI89
aI90
aI92
aI96
aI99
asba(ibilhete
Bilhete
p17
(dp18
g9
(lp19
I5
aI6
aI8
aI9
aI13
aI16
aI18
aI20
aI23
aI25
aI29
aI30
aI35
aI36
aI42
aI43
aI44
aI45
aI46
aI48
aI49
aI50
aI51
aI53
aI54
aI56
aI57
aI58
aI61
aI62
aI63
aI66
aI67
aI68
aI75
aI76
aI77
aI78
aI79
aI80
aI83
aI84
aI85
aI87
aI88
aI89
aI90
aI91
aI96
aI99
asba(ibilhete
Bilhete
p20
(dp21
g9
(lp22
I0
aI2
aI3
aI5
aI6
aI7
aI8
aI9
aI10
aI11
aI17
aI18
aI19
aI25
aI26
aI29
aI31
aI33
aI34
aI35
aI41
aI43
aI44
aI50
aI52
aI53
aI54
aI56
aI57
aI58
aI59
aI60
aI62
aI64
aI65
aI67
aI69
aI70
aI72
aI74
aI76
aI77
aI79
aI80
aI82
aI85
aI87
aI88
aI92
aI94
asba(ibilhete
Bilhete
p23
(dp24
S'numeros'
p25
(lp26
I0
aI1
aI2
aI3
aI4
aI10
aI11
aI12
aI13
aI14
aI20
aI21
aI22
aI23
aI24
aI30
aI31
aI32
aI33
aI34
aI40
aI41
aI42
aI43
aI44
aI50
aI51
aI52
aI53
aI54
aI60
aI61
aI62
aI63
aI64
aI70
aI71
aI72
aI73
aI74
aI80
aI81
aI82
aI83
aI84
aI90
aI91
aI92
aI93
aI94
asba(ibilhete
Bilhete
p27
(dp28
g25
(lp29
I4
aI5
aI6
aI9
aI10
aI15
aI16
aI18
aI22
aI27
aI28
aI29
aI30
aI31
aI32
aI34
aI41
aI44
aI45
aI47
aI51
aI52
aI54
aI56
aI57
aI58
aI60
aI63
aI67
aI68
aI72
aI74
aI75
aI76
aI77
aI78
aI79
aI80
aI81
aI82
aI83
aI84
aI85
aI89
aI91
aI92
aI93
aI97
aI98
aI99
asba(ibilhete
Bilhete
p30
(dp31
S'numeros'
p32
(lp33
I0
aI1
aI2
aI3
aI8
aI10
aI11
aI12
aI13
aI14
aI15
aI20
aI21
aI22
aI23
aI24
aI26
aI30
aI31
aI32
aI33
aI35
aI40
aI41
aI42
aI43
aI48
aI50
aI51
aI52
aI53
aI59
aI60
aI61
aI62
aI63
aI65
aI68
aI70
aI71
aI72
aI73
aI78
aI79
aI82
aI83
aI89
aI92
aI93
aI96
asbas.